; Function Attrs: nounwind uwtable
define internal fastcc i32 @ir_add_const_tmp_reg(ptr noundef %0, i32 noundef %1, i32 noundef %2, i32 noundef %3, ptr nocapture noundef writeonly %4) unnamed_addr #1 {
  %6 = load ptr, ptr %0, align 8
  %7 = sext i32 %1 to i64
  %8 = getelementptr inbounds %struct._ir_insn, ptr %6, i64 %7
  %9 = getelementptr inbounds i8, ptr %8, i64 1
  %10 = load i8, ptr %9, align 1
  %11 = icmp eq i8 %10, 6
  br i1 %11, label %12, label %34

12:                                               ; preds = %5
  %13 = load i8, ptr %8, align 8
  %.off.i = add i8 %13, -66
  %switch.i = icmp ult i8 %.off.i, 3
  %14 = getelementptr i8, ptr %8, i64 8
  br i1 %switch.i, label %15, label %31

15:                                               ; preds = %12
  %.val.i = load i32, ptr %14, align 8
  %16 = tail call ptr @ir_get_str(ptr noundef nonnull %0, i32 noundef %.val.i) #22
  %17 = getelementptr inbounds i8, ptr %0, i64 328
  %18 = load ptr, ptr %17, align 8
  %.not.i.i = icmp eq ptr %18, null
  br i1 %.not.i.i, label %24, label %19

19:                                               ; preds = %15
  %20 = getelementptr inbounds i8, ptr %18, i64 96
  %21 = load ptr, ptr %20, align 8
  %.not10.i.i = icmp eq ptr %21, null
  br i1 %.not10.i.i, label %24, label %22

22:                                               ; preds = %19
  %23 = tail call ptr %21(ptr noundef nonnull %18, ptr noundef %16, i1 noundef zeroext false) #22
  br label %ir_sym_addr.exit.i

24:                                               ; preds = %19, %15
  %25 = tail call ptr @dlsym(ptr noundef null, ptr noundef %16) #22
  br label %ir_sym_addr.exit.i

ir_sym_addr.exit.i:                               ; preds = %24, %22
  %26 = phi ptr [ %23, %22 ], [ %25, %24 ]
  %.not.i = icmp eq ptr %26, null
  br i1 %.not.i, label %ir_may_fuse_imm.exit.thread10, label %27

27:                                               ; preds = %ir_sym_addr.exit.i
  %28 = icmp slt ptr %26, inttoptr (i64 2147483648 to ptr)
  %29 = icmp sgt ptr %26, inttoptr (i64 -2147483649 to ptr)
  %30 = and i1 %28, %29
  br i1 %30, label %ir_may_fuse_imm.exit.thread, label %ir_may_fuse_imm.exit.thread10

31:                                               ; preds = %12
  %32 = load i64, ptr %14, align 8
  %33 = add i64 %32, 2147483648
  %spec.select.i = icmp ult i64 %33, 4294967296
  br i1 %spec.select.i, label %ir_may_fuse_imm.exit.thread, label %ir_may_fuse_imm.exit.thread10

34:                                               ; preds = %5
  %35 = zext i8 %10 to i64
  %36 = getelementptr inbounds [14 x i8], ptr @ir_type_size, i64 0, i64 %35
  %37 = load i8, ptr %36, align 1
  %38 = icmp ult i8 %37, 5
  br i1 %38, label %ir_may_fuse_imm.exit.thread, label %ir_may_fuse_imm.exit

ir_may_fuse_imm.exit:                             ; preds = %34
  %39 = getelementptr inbounds i8, ptr %8, i64 8
  %40 = load i64, ptr %39, align 8
  %41 = add i64 %40, 2147483648
  %spec.select19.i = icmp ult i64 %41, 4294967296
  br i1 %spec.select19.i, label %ir_may_fuse_imm.exit.thread, label %ir_may_fuse_imm.exit.thread10

ir_may_fuse_imm.exit.thread10:                    ; preds = %ir_sym_addr.exit.i, %31, %27, %ir_may_fuse_imm.exit
  %42 = getelementptr inbounds i8, ptr %4, i64 3
  %43 = sext i32 %3 to i64
  %44 = getelementptr inbounds [3 x %struct._ir_tmp_reg], ptr %42, i64 0, i64 %43
  %45 = trunc i32 %2 to i8
  %46 = load i8, ptr %9, align 1
  store i8 %45, ptr %44, align 1
  %.sroa.2.0..sroa_idx = getelementptr inbounds i8, ptr %44, i64 1
  store i8 %46, ptr %.sroa.2.0..sroa_idx, align 1
  %.sroa.3.0..sroa_idx = getelementptr inbounds i8, ptr %44, i64 2
  store i8 0, ptr %.sroa.3.0..sroa_idx, align 1
  %.sroa.4.0..sroa_idx = getelementptr inbounds i8, ptr %44, i64 3
  store i8 2, ptr %.sroa.4.0..sroa_idx, align 1
  %47 = add nsw i32 %3, 1
  br label %ir_may_fuse_imm.exit.thread

ir_may_fuse_imm.exit.thread:                      ; preds = %34, %31, %27, %ir_may_fuse_imm.exit.thread10, %ir_may_fuse_imm.exit
  %.0 = phi i32 [ %3, %ir_may_fuse_imm.exit ], [ %47, %ir_may_fuse_imm.exit.thread10 ], [ %3, %27 ], [ %3, %31 ], [ %3, %34 ]
  ret i32 %.0
}